target datalayout = "e-m:e-p270:32:32-p271:32:32-p272:64:64-i64:64-i128:128-f80:128-n8:16:32:64-S128"
target triple = "x86_64-pc-linux-gnu"

%struct.print_field = type { i32, ptr, ptr, i16 }

@print_fields_parsable_print = dso_local global i32 0, align 4
@print_fields_have_header = dso_local global i32 1, align 4
@fields_delimiter = dso_local global ptr null, align 8
@.str = private unnamed_addr constant [3 x i8] c"%s\00", align 1
@.str.1 = private unnamed_addr constant [5 x i8] c"%s%s\00", align 1
@.str.2 = private unnamed_addr constant [4 x i8] c"%s|\00", align 1
@.str.3 = private unnamed_addr constant [7 x i8] c"%*.*s \00", align 1
@.str.4 = private unnamed_addr constant [2 x i8] c"\0A\00", align 1
@stdout = external global ptr, align 8

; Function Attrs: inlinehint nounwind uwtable
define available_externally i32 @putchar(i32 noundef %0) #4 {
  %2 = alloca i32, align 4
  store i32 %0, ptr %2, align 4
  %3 = load i32, ptr %2, align 4
  %4 = load ptr, ptr @stdout, align 8
  %5 = call i32 @putc(i32 noundef %3, ptr noundef %4)
  ret i32 %5
}

; Function Attrs: nounwind uwtable
define dso_local void @print_fields_header(ptr noundef %0) #0 {
  %2 = alloca ptr, align 8
  %3 = alloca ptr, align 8
  %4 = alloca ptr, align 8
  %5 = alloca i32, align 4
  %6 = alloca i32, align 4
  %7 = alloca i32, align 4
  %8 = alloca i32, align 4
  %9 = alloca i32, align 4
  %10 = alloca i32, align 4
  store ptr %0, ptr %2, align 8
  call void @llvm.lifetime.start.p0(i64 8, ptr %3) #10
  store ptr null, ptr %3, align 8
  call void @llvm.lifetime.start.p0(i64 8, ptr %4) #10
  store ptr null, ptr %4, align 8
  call void @llvm.lifetime.start.p0(i64 4, ptr %5) #10
  store i32 1, ptr %5, align 4
  call void @llvm.lifetime.start.p0(i64 4, ptr %6) #10
  store i32 0, ptr %6, align 4
  %11 = load ptr, ptr %2, align 8
  %12 = icmp ne ptr %11, null
  br i1 %12, label %13, label %16

13:                                               ; preds = %1
  %14 = load i32, ptr @print_fields_have_header, align 4
  %15 = icmp ne i32 %14, 0
  br i1 %15, label %17, label %16

16:                                               ; preds = %13, %1
  store i32 1, ptr %7, align 4
  br label %111

17:                                               ; preds = %13
  %18 = load ptr, ptr %2, align 8
  %19 = call i32 @list_count(ptr noundef %18)
  store i32 %19, ptr %6, align 4
  %20 = load ptr, ptr %2, align 8
  %21 = call ptr @list_iterator_create(ptr noundef %20)
  store ptr %21, ptr %3, align 8
  br label %22

22:                                               ; preds = %76, %17
  %23 = load ptr, ptr %3, align 8
  %24 = call ptr @list_next(ptr noundef %23)
  store ptr %24, ptr %4, align 8
  %25 = icmp ne ptr %24, null
  br i1 %25, label %26, label %79

26:                                               ; preds = %22
  %27 = load i32, ptr @print_fields_parsable_print, align 4
  %28 = icmp eq i32 %27, 2
  br i1 %28, label %29, label %38

29:                                               ; preds = %26
  %30 = load i32, ptr %5, align 4
  %31 = load i32, ptr %6, align 4
  %32 = icmp eq i32 %30, %31
  br i1 %32, label %33, label %38

33:                                               ; preds = %29
  %34 = load ptr, ptr %4, align 8
  %35 = getelementptr inbounds nuw %struct.print_field, ptr %34, i32 0, i32 1
  %36 = load ptr, ptr %35, align 8
  %37 = call i32 (ptr, ...) @printf(ptr noundef @.str, ptr noundef %36)
  br label %76

38:                                               ; preds = %29, %26
  %39 = load i32, ptr @print_fields_parsable_print, align 4
  %40 = icmp ne i32 %39, 0
  br i1 %40, label %41, label %50

41:                                               ; preds = %38
  %42 = load ptr, ptr @fields_delimiter, align 8
  %43 = icmp ne ptr %42, null
  br i1 %43, label %44, label %50

44:                                               ; preds = %41
  %45 = load ptr, ptr %4, align 8
  %46 = getelementptr inbounds nuw %struct.print_field, ptr %45, i32 0, i32 1
  %47 = load ptr, ptr %46, align 8
  %48 = load ptr, ptr @fields_delimiter, align 8
  %49 = call i32 (ptr, ...) @printf(ptr noundef @.str.1, ptr noundef %47, ptr noundef %48)
  br label %75

50:                                               ; preds = %41, %38
  %51 = load i32, ptr @print_fields_parsable_print, align 4
  %52 = icmp ne i32 %51, 0
  br i1 %52, label %53, label %61

53:                                               ; preds = %50
  %54 = load ptr, ptr @fields_delimiter, align 8
  %55 = icmp ne ptr %54, null
  br i1 %55, label %61, label %56

56:                                               ; preds = %53
  %57 = load ptr, ptr %4, align 8
  %58 = getelementptr inbounds nuw %struct.print_field, ptr %57, i32 0, i32 1
  %59 = load ptr, ptr %58, align 8
  %60 = call i32 (ptr, ...) @printf(ptr noundef @.str.2, ptr noundef %59)
  br label %74

61:                                               ; preds = %53, %50
  call void @llvm.lifetime.start.p0(i64 4, ptr %8) #10
  %62 = load ptr, ptr %4, align 8
  %63 = getelementptr inbounds nuw %struct.print_field, ptr %62, i32 0, i32 0
  %64 = load i32, ptr %63, align 8
  %65 = call i32 @llvm.abs.i32(i32 %64, i1 true)
  store i32 %65, ptr %8, align 4
  %66 = load ptr, ptr %4, align 8
  %67 = getelementptr inbounds nuw %struct.print_field, ptr %66, i32 0, i32 0
  %68 = load i32, ptr %67, align 8
  %69 = load i32, ptr %8, align 4
  %70 = load ptr, ptr %4, align 8
  %71 = getelementptr inbounds nuw %struct.print_field, ptr %70, i32 0, i32 1
  %72 = load ptr, ptr %71, align 8
  %73 = call i32 (ptr, ...) @printf(ptr noundef @.str.3, i32 noundef %68, i32 noundef %69, ptr noundef %72)
  call void @llvm.lifetime.end.p0(i64 4, ptr %8) #10
  br label %74

74:                                               ; preds = %61, %56
  br label %75

75:                                               ; preds = %74, %44
  br label %76

76:                                               ; preds = %75, %33
  %77 = load i32, ptr %5, align 4
  %78 = add nsw i32 %77, 1
  store i32 %78, ptr %5, align 4
  br label %22, !llvm.loop !8

79:                                               ; preds = %22
  %80 = load ptr, ptr %3, align 8
  call void @list_iterator_reset(ptr noundef %80)
  %81 = call i32 (ptr, ...) @printf(ptr noundef @.str.4)
  %82 = load i32, ptr @print_fields_parsable_print, align 4
  %83 = icmp ne i32 %82, 0
  br i1 %83, label %84, label %86

84:                                               ; preds = %79
  %85 = load ptr, ptr %3, align 8
  call void @list_iterator_destroy(ptr noundef %85)
  store i32 1, ptr %7, align 4
  br label %111

86:                                               ; preds = %79
  br label %87

87:                                               ; preds = %106, %86
  %88 = load ptr, ptr %3, align 8
  %89 = call ptr @list_next(ptr noundef %88)
  store ptr %89, ptr %4, align 8
  %90 = icmp ne ptr %89, null
  br i1 %90, label %91, label %108

91:                                               ; preds = %87
  call void @llvm.lifetime.start.p0(i64 4, ptr %9) #10
  %92 = load ptr, ptr %4, align 8
  %93 = getelementptr inbounds nuw %struct.print_field, ptr %92, i32 0, i32 0
  %94 = load i32, ptr %93, align 8
  %95 = call i32 @llvm.abs.i32(i32 %94, i1 true)
  store i32 %95, ptr %9, align 4
  call void @llvm.lifetime.start.p0(i64 4, ptr %10) #10
  store i32 0, ptr %10, align 4
  br label %96

96:                                               ; preds = %103, %91
  %97 = load i32, ptr %10, align 4
  %98 = load i32, ptr %9, align 4
  %99 = icmp slt i32 %97, %98
  br i1 %99, label %101, label %100

100:                                              ; preds = %96
  store i32 6, ptr %7, align 4
  call void @llvm.lifetime.end.p0(i64 4, ptr %10) #10
  br label %106

101:                                              ; preds = %96
  %102 = call i32 @putchar(i32 noundef 45)
  br label %103

103:                                              ; preds = %101
  %104 = load i32, ptr %10, align 4
  %105 = add nsw i32 %104, 1
  store i32 %105, ptr %10, align 4
  br label %96, !llvm.loop !11

106:                                              ; preds = %100
  %107 = call i32 @putchar(i32 noundef 32)
  call void @llvm.lifetime.end.p0(i64 4, ptr %9) #10
  br label %87, !llvm.loop !12

108:                                              ; preds = %87
  %109 = load ptr, ptr %3, align 8
  call void @list_iterator_destroy(ptr noundef %109)
  %110 = call i32 (ptr, ...) @printf(ptr noundef @.str.4)
  store i32 0, ptr %7, align 4
  br label %111

111:                                              ; preds = %108, %84, %16
  call void @llvm.lifetime.end.p0(i64 4, ptr %6) #10
  call void @llvm.lifetime.end.p0(i64 4, ptr %5) #10
  call void @llvm.lifetime.end.p0(i64 8, ptr %4) #10
  call void @llvm.lifetime.end.p0(i64 8, ptr %3) #10
  %112 = load i32, ptr %7, align 4
  switch i32 %112, label %114 [
    i32 0, label %113
    i32 1, label %113
  ]

113:                                              ; preds = %111, %111
  ret void

114:                                              ; preds = %111
  unreachable
}