; Function Attrs: nounwind uwtable
define dso_local void @print_fields_header(ptr noundef %0) local_unnamed_addr #0 {
  %2 = icmp ne ptr %0, null
  %3 = load i32, ptr @print_fields_have_header, align 4
  %4 = icmp ne i32 %3, 0
  %or.cond = select i1 %2, i1 %4, i1 false
  br i1 %or.cond, label %5, label %55

5:                                                ; preds = %1
  %6 = tail call i32 @list_count(ptr noundef nonnull %0) #11
  %7 = tail call ptr @list_iterator_create(ptr noundef nonnull %0) #11
  %8 = tail call ptr @list_next(ptr noundef %7) #11
  %.not35 = icmp eq ptr %8, null
  br i1 %.not35, label %._crit_edge, label %.lr.ph

.lr.ph:                                           ; preds = %5, %37
  %9 = phi ptr [ %39, %37 ], [ %8, %5 ]
  %.02636 = phi i32 [ %38, %37 ], [ 1, %5 ]
  %10 = load i32, ptr @print_fields_parsable_print, align 4
  %11 = icmp eq i32 %10, 2
  %12 = icmp eq i32 %.02636, %6
  %or.cond34 = select i1 %11, i1 %12, i1 false
  br i1 %or.cond34, label %13, label %17

13:                                               ; preds = %.lr.ph
  %14 = getelementptr inbounds nuw i8, ptr %9, i64 8
  %15 = load ptr, ptr %14, align 8
  %16 = tail call i32 (ptr, ...) @printf(ptr noundef nonnull dereferenceable(1) @.str, ptr noundef %15)
  br label %37

17:                                               ; preds = %.lr.ph
  %18 = icmp ne i32 %10, 0
  %19 = load ptr, ptr @fields_delimiter, align 8
  %20 = icmp ne ptr %19, null
  %or.cond3 = select i1 %18, i1 %20, i1 false
  br i1 %or.cond3, label %21, label %25

21:                                               ; preds = %17
  %22 = getelementptr inbounds nuw i8, ptr %9, i64 8
  %23 = load ptr, ptr %22, align 8
  %24 = tail call i32 (ptr, ...) @printf(ptr noundef nonnull dereferenceable(1) @.str.1, ptr noundef %23, ptr noundef nonnull %19)
  br label %37

25:                                               ; preds = %17
  %26 = icmp eq i32 %10, 0
  %or.cond5 = select i1 %26, i1 true, i1 %20
  br i1 %or.cond5, label %31, label %27

27:                                               ; preds = %25
  %28 = getelementptr inbounds nuw i8, ptr %9, i64 8
  %29 = load ptr, ptr %28, align 8
  %30 = tail call i32 (ptr, ...) @printf(ptr noundef nonnull dereferenceable(1) @.str.2, ptr noundef %29)
  br label %37

31:                                               ; preds = %25
  %32 = load i32, ptr %9, align 8
  %33 = tail call i32 @llvm.abs.i32(i32 %32, i1 true)
  %34 = getelementptr inbounds nuw i8, ptr %9, i64 8
  %35 = load ptr, ptr %34, align 8
  %36 = tail call i32 (ptr, ...) @printf(ptr noundef nonnull dereferenceable(1) @.str.3, i32 noundef %32, i32 noundef %33, ptr noundef %35)
  br label %37

37:                                               ; preds = %21, %31, %27, %13
  %38 = add nuw nsw i32 %.02636, 1
  %39 = tail call ptr @list_next(ptr noundef %7) #11
  %.not = icmp eq ptr %39, null
  br i1 %.not, label %._crit_edge, label %.lr.ph, !llvm.loop !8

._crit_edge:                                      ; preds = %37, %5
  tail call void @list_iterator_reset(ptr noundef %7) #11
  %40 = load ptr, ptr @stdout, align 8
  %41 = tail call noundef i32 @putc(i32 noundef 10, ptr noundef %40)
  %42 = load i32, ptr @print_fields_parsable_print, align 4
  %.not31 = icmp eq i32 %42, 0
  br i1 %.not31, label %.preheader, label %44

.preheader:                                       ; preds = %._crit_edge
  %43 = tail call ptr @list_next(ptr noundef %7) #11
  %.not3241 = icmp eq ptr %43, null
  br i1 %.not3241, label %._crit_edge43, label %.lr.ph42

44:                                               ; preds = %._crit_edge
  tail call void @list_iterator_destroy(ptr noundef %7) #11
  br label %55

.lr.ph42:                                         ; preds = %.preheader, %._crit_edge40
  %45 = phi ptr [ %49, %._crit_edge40 ], [ %43, %.preheader ]
  %46 = load i32, ptr %45, align 8
  %.not44 = icmp eq i32 %46, 0
  br i1 %.not44, label %._crit_edge40, label %.lr.ph39.preheader

.lr.ph39.preheader:                               ; preds = %.lr.ph42
  %smax = tail call i32 @llvm.abs.i32(i32 %46, i1 true)
  br label %.lr.ph39

._crit_edge40:                                    ; preds = %.lr.ph39, %.lr.ph42
  %47 = load ptr, ptr @stdout, align 8
  %48 = tail call noundef i32 @putc(i32 noundef 32, ptr noundef %47)
  %49 = tail call ptr @list_next(ptr noundef %7) #11
  %.not32 = icmp eq ptr %49, null
  br i1 %.not32, label %._crit_edge43, label %.lr.ph42, !llvm.loop !11

.lr.ph39:                                         ; preds = %.lr.ph39.preheader, %.lr.ph39
  %.037 = phi i32 [ %52, %.lr.ph39 ], [ 0, %.lr.ph39.preheader ]
  %50 = load ptr, ptr @stdout, align 8
  %51 = tail call noundef i32 @putc(i32 noundef 45, ptr noundef %50)
  %52 = add nuw i32 %.037, 1
  %exitcond.not = icmp eq i32 %52, %smax
  br i1 %exitcond.not, label %._crit_edge40, label %.lr.ph39, !llvm.loop !12

._crit_edge43:                                    ; preds = %._crit_edge40, %.preheader
  tail call void @list_iterator_destroy(ptr noundef %7) #11
  %53 = load ptr, ptr @stdout, align 8
  %54 = tail call noundef i32 @putc(i32 noundef 10, ptr noundef %53)
  br label %55

55:                                               ; preds = %1, %._crit_edge43, %44
  ret void
}